; ModuleID = '28/59.c'
source_filename = "28/59.c"
target datalayout = "e-m:e-p270:32:32-p271:32:32-p272:64:64-i64:64-f80:128-n8:16:32:64-S128"
target triple = "x86_64-pc-linux-gnu"

@.str = private unnamed_addr constant [3 x i8] c"%d\00", align 1
@.str.1 = private unnamed_addr constant [4 x i8] c",%d\00", align 1

; Function Attrs: noinline nounwind uwtable
define dso_local void @main() #0 {
  %1 = alloca [10000 x i8], align 16
  %2 = alloca i32, align 4
  %3 = alloca i32, align 4
  %4 = alloca [300 x i32], align 16
  %5 = alloca i32, align 4
  %6 = alloca i32, align 4
  store i32 0, i32* %3, align 4
  store i32 0, i32* %5, align 4
  store i32 0, i32* %2, align 4
  br label %7

7:                                                ; preds = %14, %0
  %8 = load i32, i32* %2, align 4
  %9 = icmp slt i32 %8, 300
  br i1 %9, label %10, label %17

10:                                               ; preds = %7
  %11 = load i32, i32* %2, align 4
  %12 = sext i32 %11 to i64
  %13 = getelementptr inbounds [300 x i32], [300 x i32]* %4, i64 0, i64 %12
  store i32 0, i32* %13, align 4
  br label %14

14:                                               ; preds = %10
  %15 = load i32, i32* %2, align 4
  %16 = add nsw i32 %15, 1
  store i32 %16, i32* %2, align 4
  br label %7

17:                                               ; preds = %7
  %18 = getelementptr inbounds [10000 x i8], [10000 x i8]* %1, i64 0, i64 0
  %19 = call i32 (i8*, ...) bitcast (i32 (...)* @gets to i32 (i8*, ...)*)(i8* %18)
  %20 = getelementptr inbounds [10000 x i8], [10000 x i8]* %1, i64 0, i64 0
  %21 = load i8, i8* %20, align 16
  %22 = sext i8 %21 to i32
  %23 = icmp ne i32 %22, 32
  br i1 %23, label %24, label %95

24:                                               ; preds = %17
  store i32 1, i32* %6, align 4
  %25 = load i32, i32* %5, align 4
  %26 = add nsw i32 %25, 1
  store i32 %26, i32* %5, align 4
  store i32 1, i32* %2, align 4
  br label %27

27:                                               ; preds = %91, %24
  %28 = load i32, i32* %2, align 4
  %29 = sext i32 %28 to i64
  %30 = getelementptr inbounds [10000 x i8], [10000 x i8]* %1, i64 0, i64 0
  %31 = call i64 @strlen(i8* %30) #3
  %32 = icmp ult i64 %29, %31
  br i1 %32, label %33, label %94

33:                                               ; preds = %27
  %34 = load i32, i32* %2, align 4
  %35 = sext i32 %34 to i64
  %36 = getelementptr inbounds [10000 x i8], [10000 x i8]* %1, i64 0, i64 %35
  %37 = load i8, i8* %36, align 1
  %38 = sext i8 %37 to i32
  %39 = icmp ne i32 %38, 32
  br i1 %39, label %40, label %50

40:                                               ; preds = %33
  %41 = load i32, i32* %2, align 4
  %42 = sext i32 %41 to i64
  %43 = getelementptr inbounds [10000 x i8], [10000 x i8]* %1, i64 0, i64 0
  %44 = call i64 @strlen(i8* %43) #3
  %45 = sub i64 %44, 1
  %46 = icmp ult i64 %42, %45
  br i1 %46, label %47, label %50

47:                                               ; preds = %40
  %48 = load i32, i32* %5, align 4
  %49 = add nsw i32 %48, 1
  store i32 %49, i32* %5, align 4
  store i32 1, i32* %6, align 4
  br label %90

50:                                               ; preds = %40, %33
  %51 = load i32, i32* %2, align 4
  %52 = sext i32 %51 to i64
  %53 = getelementptr inbounds [10000 x i8], [10000 x i8]* %1, i64 0, i64 %52
  %54 = load i8, i8* %53, align 1
  %55 = sext i8 %54 to i32
  %56 = icmp ne i32 %55, 32
  br i1 %56, label %57, label %71

57:                                               ; preds = %50
  %58 = load i32, i32* %2, align 4
  %59 = sext i32 %58 to i64
  %60 = getelementptr inbounds [10000 x i8], [10000 x i8]* %1, i64 0, i64 0
  %61 = call i64 @strlen(i8* %60) #3
  %62 = sub i64 %61, 1
  %63 = icmp eq i64 %59, %62
  br i1 %63, label %64, label %71

64:                                               ; preds = %57
  %65 = load i32, i32* %5, align 4
  %66 = add nsw i32 %65, 1
  store i32 %66, i32* %5, align 4
  %67 = load i32, i32* %5, align 4
  %68 = load i32, i32* %3, align 4
  %69 = sext i32 %68 to i64
  %70 = getelementptr inbounds [300 x i32], [300 x i32]* %4, i64 0, i64 %69
  store i32 %67, i32* %70, align 4
  store i32 0, i32* %6, align 4
  store i32 0, i32* %5, align 4
  br label %89

71:                                               ; preds = %57, %50
  %72 = load i32, i32* %2, align 4
  %73 = sext i32 %72 to i64
  %74 = getelementptr inbounds [10000 x i8], [10000 x i8]* %1, i64 0, i64 %73
  %75 = load i8, i8* %74, align 1
  %76 = sext i8 %75 to i32
  %77 = icmp eq i32 %76, 32
  br i1 %77, label %78, label %88

78:                                               ; preds = %71
  %79 = load i32, i32* %6, align 4
  %80 = icmp ne i32 %79, 0
  br i1 %80, label %81, label %88

81:                                               ; preds = %78
  %82 = load i32, i32* %5, align 4
  %83 = load i32, i32* %3, align 4
  %84 = sext i32 %83 to i64
  %85 = getelementptr inbounds [300 x i32], [300 x i32]* %4, i64 0, i64 %84
  store i32 %82, i32* %85, align 4
  store i32 0, i32* %6, align 4
  store i32 0, i32* %5, align 4
  %86 = load i32, i32* %3, align 4
  %87 = add nsw i32 %86, 1
  store i32 %87, i32* %3, align 4
  br label %88

88:                                               ; preds = %81, %78, %71
  br label %89

89:                                               ; preds = %88, %64
  br label %90

90:                                               ; preds = %89, %47
  br label %91

91:                                               ; preds = %90
  %92 = load i32, i32* %2, align 4
  %93 = add nsw i32 %92, 1
  store i32 %93, i32* %2, align 4
  br label %27

94:                                               ; preds = %27
  br label %153

95:                                               ; preds = %17
  store i32 0, i32* %6, align 4
  store i32 1, i32* %2, align 4
  br label %96

96:                                               ; preds = %149, %95
  %97 = load i32, i32* %2, align 4
  %98 = sext i32 %97 to i64
  %99 = getelementptr inbounds [10000 x i8], [10000 x i8]* %1, i64 0, i64 0
  %100 = call i64 @strlen(i8* %99) #3
  %101 = icmp ult i64 %98, %100
  br i1 %101, label %102, label %152

102:                                              ; preds = %96
  %103 = load i32, i32* %2, align 4
  %104 = sext i32 %103 to i64
  %105 = getelementptr inbounds [10000 x i8], [10000 x i8]* %1, i64 0, i64 %104
  %106 = load i8, i8* %105, align 1
  %107 = sext i8 %106 to i32
  %108 = icmp ne i32 %107, 32
  br i1 %108, label %109, label %115

109:                                              ; preds = %102
  %110 = load i32, i32* %6, align 4
  %111 = icmp ne i32 %110, 0
  br i1 %111, label %112, label %115

112:                                              ; preds = %109
  %113 = load i32, i32* %5, align 4
  %114 = add nsw i32 %113, 1
  store i32 %114, i32* %5, align 4
  br label %148

115:                                              ; preds = %109, %102
  %116 = load i32, i32* %2, align 4
  %117 = sext i32 %116 to i64
  %118 = getelementptr inbounds [10000 x i8], [10000 x i8]* %1, i64 0, i64 %117
  %119 = load i8, i8* %118, align 1
  %120 = sext i8 %119 to i32
  %121 = icmp ne i32 %120, 32
  br i1 %121, label %122, label %128

122:                                              ; preds = %115
  %123 = load i32, i32* %6, align 4
  %124 = icmp eq i32 %123, 0
  br i1 %124, label %125, label %128

125:                                              ; preds = %122
  store i32 1, i32* %6, align 4
  %126 = load i32, i32* %5, align 4
  %127 = add nsw i32 %126, 1
  store i32 %127, i32* %5, align 4
  br label %147

128:                                              ; preds = %122, %115
  %129 = load i32, i32* %2, align 4
  %130 = sext i32 %129 to i64
  %131 = getelementptr inbounds [10000 x i8], [10000 x i8]* %1, i64 0, i64 %130
  %132 = load i8, i8* %131, align 1
  %133 = sext i8 %132 to i32
  %134 = icmp eq i32 %133, 32
  br i1 %134, label %135, label %145

135:                                              ; preds = %128
  %136 = load i32, i32* %6, align 4
  %137 = icmp ne i32 %136, 0
  br i1 %137, label %138, label %145

138:                                              ; preds = %135
  %139 = load i32, i32* %5, align 4
  %140 = load i32, i32* %3, align 4
  %141 = sext i32 %140 to i64
  %142 = getelementptr inbounds [300 x i32], [300 x i32]* %4, i64 0, i64 %141
  store i32 %139, i32* %142, align 4
  store i32 0, i32* %6, align 4
  store i32 0, i32* %5, align 4
  %143 = load i32, i32* %3, align 4
  %144 = add nsw i32 %143, 1
  store i32 %144, i32* %3, align 4
  br label %146

145:                                              ; preds = %135, %128
  br label %146

146:                                              ; preds = %145, %138
  br label %147

147:                                              ; preds = %146, %125
  br label %148

148:                                              ; preds = %147, %112
  br label %149

149:                                              ; preds = %148
  %150 = load i32, i32* %2, align 4
  %151 = add nsw i32 %150, 1
  store i32 %151, i32* %2, align 4
  br label %96

152:                                              ; preds = %96
  br label %153

153:                                              ; preds = %152, %94
  %154 = getelementptr inbounds [300 x i32], [300 x i32]* %4, i64 0, i64 0
  %155 = load i32, i32* %154, align 16
  %156 = call i32 (i8*, ...) @printf(i8* getelementptr inbounds ([3 x i8], [3 x i8]* @.str, i64 0, i64 0), i32 %155)
  store i32 1, i32* %2, align 4
  br label %157

157:                                              ; preds = %169, %153
  %158 = load i32, i32* %2, align 4
  %159 = sext i32 %158 to i64
  %160 = getelementptr inbounds [300 x i32], [300 x i32]* %4, i64 0, i64 %159
  %161 = load i32, i32* %160, align 4
  %162 = icmp ne i32 %161, 0
  br i1 %162, label %163, label %172

163:                                              ; preds = %157
  %164 = load i32, i32* %2, align 4
  %165 = sext i32 %164 to i64
  %166 = getelementptr inbounds [300 x i32], [300 x i32]* %4, i64 0, i64 %165
  %167 = load i32, i32* %166, align 4
  %168 = call i32 (i8*, ...) @printf(i8* getelementptr inbounds ([4 x i8], [4 x i8]* @.str.1, i64 0, i64 0), i32 %167)
  br label %169

169:                                              ; preds = %163
  %170 = load i32, i32* %2, align 4
  %171 = add nsw i32 %170, 1
  store i32 %171, i32* %2, align 4
  br label %157

172:                                              ; preds = %157
  ret void
}

declare dso_local i32 @gets(...) #1

; Function Attrs: nounwind readonly
declare dso_local i64 @strlen(i8*) #2

declare dso_local i32 @printf(i8*, ...) #1


!llvm.module.flags = !{!0}
!llvm.ident = !{!1}

!0 = !{i32 1, !"wchar_size", i32 4}
!1 = !{!"clang version 10.0.0-4ubuntu1 "}
